target datalayout = "e-m:e-p270:32:32-p271:32:32-p272:64:64-i64:64-i128:128-f80:128-n8:16:32:64-S128"
target triple = "x86_64-pc-linux-gnu"

%struct.Node = type { i32 }

; Function Attrs: nounwind uwtable
define internal zeroext i1 @setRuleCheckAsUser_walker(ptr noundef %0, ptr noundef %1) #0 {
  %3 = alloca i1, align 1
  %4 = alloca ptr, align 8
  %5 = alloca ptr, align 8
  store ptr %0, ptr %4, align 8
  store ptr %1, ptr %5, align 8
  %6 = load ptr, ptr %4, align 8
  %7 = icmp eq ptr %6, null
  br i1 %7, label %8, label %9

8:                                                ; preds = %2
  store i1 false, ptr %3, align 1
  br label %22

9:                                                ; preds = %2
  %10 = load ptr, ptr %4, align 8
  %11 = getelementptr inbounds nuw %struct.Node, ptr %10, i32 0, i32 0
  %12 = load i32, ptr %11, align 4
  %13 = icmp eq i32 %12, 67
  br i1 %13, label %14, label %18

14:                                               ; preds = %9
  %15 = load ptr, ptr %4, align 8
  %16 = load ptr, ptr %5, align 8
  %17 = load i32, ptr %16, align 4
  call void @setRuleCheckAsUser_Query(ptr noundef %15, i32 noundef %17)
  store i1 false, ptr %3, align 1
  br label %22

18:                                               ; preds = %9
  %19 = load ptr, ptr %4, align 8
  %20 = load ptr, ptr %5, align 8
  %21 = call zeroext i1 @expression_tree_walker_impl(ptr noundef %19, ptr noundef @setRuleCheckAsUser_walker, ptr noundef %20)
  store i1 %21, ptr %3, align 1
  br label %22

22:                                               ; preds = %18, %14, %8
  %23 = load i1, ptr %3, align 1
  ret i1 %23
}

; Function Attrs: nounwind uwtable
define dso_local void @setRuleCheckAsUser(ptr noundef %0, i32 noundef %1) #0 {
  %3 = alloca ptr, align 8
  %4 = alloca i32, align 4
  store ptr %0, ptr %3, align 8
  store i32 %1, ptr %4, align 4
  %5 = load ptr, ptr %3, align 8
  %6 = call zeroext i1 @setRuleCheckAsUser_walker(ptr noundef %5, ptr noundef %4)
  ret void
}