; Function Attrs: nounwind uwtable
define dso_local void @setRuleCheckAsUser(ptr noundef %0, i32 noundef %1) local_unnamed_addr #0 {
  %3 = alloca i32, align 4
  store i32 %1, ptr %3, align 4
  %4 = icmp eq ptr %0, null
  br i1 %4, label %setRuleCheckAsUser_walker.exit, label %5

5:                                                ; preds = %2
  %6 = load i32, ptr %0, align 4
  %7 = icmp eq i32 %6, 67
  br i1 %7, label %8, label %9

8:                                                ; preds = %5
  tail call fastcc void @setRuleCheckAsUser_Query(ptr noundef nonnull %0, i32 noundef %1)
  br label %setRuleCheckAsUser_walker.exit

9:                                                ; preds = %5
  %10 = call zeroext i1 @expression_tree_walker_impl(ptr noundef nonnull %0, ptr noundef nonnull @setRuleCheckAsUser_walker, ptr noundef nonnull %3) #6
  br label %setRuleCheckAsUser_walker.exit

setRuleCheckAsUser_walker.exit:                   ; preds = %2, %8, %9
  ret void
}